target datalayout = "e-m:e-p270:32:32-p271:32:32-p272:64:64-i64:64-i128:128-f80:128-n8:16:32:64-S128"
target triple = "x86_64-pc-linux-gnu"

%struct._GString = type { ptr, i64, i64 }
%struct.DeviceCounts = type { ptr, i64, %struct.IOCounts, ptr }
%struct.IOCounts = type { i64, i64, i64, i64 }

@rw = internal global i32 3, align 4
@.str.17 = private unnamed_addr constant [10 x i8] c"%s, 0x%lx\00", align 1
@.str.18 = private unnamed_addr constant [11 x i8] c", %lx, %ld\00", align 1

; Function Attrs: inlinehint nounwind sspstrong uwtable
define internal zeroext i1 @track_writes() #3 {
  %1 = load i32, ptr @rw, align 4
  %2 = icmp eq i32 %1, 3
  br i1 %2, label %6, label %3

3:                                                ; preds = %0
  %4 = load i32, ptr @rw, align 4
  %5 = icmp eq i32 %4, 2
  br label %6

6:                                                ; preds = %3, %0
  %7 = phi i1 [ true, %0 ], [ %5, %3 ]
  ret i1 %7
}

; Function Attrs: inlinehint nounwind sspstrong uwtable
define internal zeroext i1 @track_reads() #3 {
  %1 = load i32, ptr @rw, align 4
  %2 = icmp eq i32 %1, 3
  br i1 %2, label %6, label %3

3:                                                ; preds = %0
  %4 = load i32, ptr @rw, align 4
  %5 = icmp eq i32 %4, 1
  br label %6

6:                                                ; preds = %3, %0
  %7 = phi i1 [ true, %0 ], [ %5, %3 ]
  ret i1 %7
}

; Function Attrs: inlinehint nounwind sspstrong uwtable
define internal ptr @g_string_append_c_inline(ptr noundef %0, i8 noundef signext %1) #3 {
  %3 = alloca ptr, align 8
  %4 = alloca i8, align 1
  store ptr %0, ptr %3, align 8
  store i8 %1, ptr %4, align 1
  %5 = load ptr, ptr %3, align 8
  %6 = getelementptr inbounds nuw %struct._GString, ptr %5, i32 0, i32 1
  %7 = load i64, ptr %6, align 8
  %8 = add i64 %7, 1
  %9 = load ptr, ptr %3, align 8
  %10 = getelementptr inbounds nuw %struct._GString, ptr %9, i32 0, i32 2
  %11 = load i64, ptr %10, align 8
  %12 = icmp ult i64 %8, %11
  br i1 %12, label %13, label %30

13:                                               ; preds = %2
  %14 = load i8, ptr %4, align 1
  %15 = load ptr, ptr %3, align 8
  %16 = getelementptr inbounds nuw %struct._GString, ptr %15, i32 0, i32 0
  %17 = load ptr, ptr %16, align 8
  %18 = load ptr, ptr %3, align 8
  %19 = getelementptr inbounds nuw %struct._GString, ptr %18, i32 0, i32 1
  %20 = load i64, ptr %19, align 8
  %21 = add i64 %20, 1
  store i64 %21, ptr %19, align 8
  %22 = getelementptr inbounds nuw i8, ptr %17, i64 %20
  store i8 %14, ptr %22, align 1
  %23 = load ptr, ptr %3, align 8
  %24 = getelementptr inbounds nuw %struct._GString, ptr %23, i32 0, i32 0
  %25 = load ptr, ptr %24, align 8
  %26 = load ptr, ptr %3, align 8
  %27 = getelementptr inbounds nuw %struct._GString, ptr %26, i32 0, i32 1
  %28 = load i64, ptr %27, align 8
  %29 = getelementptr inbounds nuw i8, ptr %25, i64 %28
  store i8 0, ptr %29, align 1
  br label %34

30:                                               ; preds = %2
  %31 = load ptr, ptr %3, align 8
  %32 = load i8, ptr %4, align 1
  %33 = call ptr @g_string_insert_c(ptr noundef %31, i64 noundef -1, i8 noundef signext %32)
  br label %34

34:                                               ; preds = %30, %13
  %35 = load ptr, ptr %3, align 8
  ret ptr %35
}

; Function Attrs: nounwind sspstrong uwtable
define internal void @fmt_iocount_record(ptr noundef %0, ptr noundef %1) #0 {
  %3 = alloca ptr, align 8
  %4 = alloca ptr, align 8
  store ptr %0, ptr %3, align 8
  store ptr %1, ptr %4, align 8
  %5 = call zeroext i1 @track_reads()
  br i1 %5, label %6, label %14

6:                                                ; preds = %2
  %7 = load ptr, ptr %3, align 8
  %8 = load ptr, ptr %4, align 8
  %9 = getelementptr inbounds nuw %struct.IOCounts, ptr %8, i32 0, i32 0
  %10 = load i64, ptr %9, align 8
  %11 = load ptr, ptr %4, align 8
  %12 = getelementptr inbounds nuw %struct.IOCounts, ptr %11, i32 0, i32 2
  %13 = load i64, ptr %12, align 8
  call void (ptr, ptr, ...) @g_string_append_printf(ptr noundef %7, ptr noundef @.str.18, i64 noundef %10, i64 noundef %13)
  br label %14

14:                                               ; preds = %6, %2
  %15 = call zeroext i1 @track_writes()
  br i1 %15, label %16, label %24

16:                                               ; preds = %14
  %17 = load ptr, ptr %3, align 8
  %18 = load ptr, ptr %4, align 8
  %19 = getelementptr inbounds nuw %struct.IOCounts, ptr %18, i32 0, i32 1
  %20 = load i64, ptr %19, align 8
  %21 = load ptr, ptr %4, align 8
  %22 = getelementptr inbounds nuw %struct.IOCounts, ptr %21, i32 0, i32 3
  %23 = load i64, ptr %22, align 8
  call void (ptr, ptr, ...) @g_string_append_printf(ptr noundef %17, ptr noundef @.str.18, i64 noundef %20, i64 noundef %23)
  br label %24

24:                                               ; preds = %16, %14
  ret void
}

; Function Attrs: nounwind sspstrong uwtable
define internal void @fmt_dev_record(ptr noundef %0, ptr noundef %1) #0 {
  %3 = alloca ptr, align 8
  %4 = alloca ptr, align 8
  store ptr %0, ptr %3, align 8
  store ptr %1, ptr %4, align 8
  %5 = load ptr, ptr %3, align 8
  %6 = load ptr, ptr %4, align 8
  %7 = getelementptr inbounds nuw %struct.DeviceCounts, ptr %6, i32 0, i32 0
  %8 = load ptr, ptr %7, align 8
  %9 = load ptr, ptr %4, align 8
  %10 = getelementptr inbounds nuw %struct.DeviceCounts, ptr %9, i32 0, i32 1
  %11 = load i64, ptr %10, align 8
  call void (ptr, ptr, ...) @g_string_append_printf(ptr noundef %5, ptr noundef @.str.17, ptr noundef %8, i64 noundef %11)
  %12 = load ptr, ptr %3, align 8
  %13 = load ptr, ptr %4, align 8
  %14 = getelementptr inbounds nuw %struct.DeviceCounts, ptr %13, i32 0, i32 2
  call void @fmt_iocount_record(ptr noundef %12, ptr noundef %14)
  %15 = load ptr, ptr %3, align 8
  %16 = call ptr @g_string_append_c_inline(ptr noundef %15, i8 noundef signext 10)
  ret void
}