; Function Attrs: nounwind sspstrong uwtable
define internal fastcc void @fmt_dev_record(ptr noundef %0, ptr noundef readonly captures(none) %1) unnamed_addr #0 {
  %3 = load ptr, ptr %1, align 8
  %4 = getelementptr inbounds nuw i8, ptr %1, i64 8
  %5 = load i64, ptr %4, align 8
  tail call void (ptr, ptr, ...) @g_string_append_printf(ptr noundef %0, ptr noundef nonnull @.str.17, ptr noundef %3, i64 noundef %5) #7
  %6 = load i32, ptr @rw, align 4
  %7 = and i32 %6, -3
  %8 = icmp eq i32 %7, 1
  br i1 %8, label %9, label %14

9:                                                ; preds = %2
  %10 = getelementptr inbounds nuw i8, ptr %1, i64 16
  %11 = load i64, ptr %10, align 8
  %12 = getelementptr inbounds nuw i8, ptr %1, i64 32
  %13 = load i64, ptr %12, align 8
  tail call void (ptr, ptr, ...) @g_string_append_printf(ptr noundef %0, ptr noundef nonnull @.str.18, i64 noundef %11, i64 noundef %13) #7
  %.pre.i = load i32, ptr @rw, align 4
  br label %14

14:                                               ; preds = %9, %2
  %15 = phi i32 [ %.pre.i, %9 ], [ %6, %2 ]
  %16 = and i32 %15, -2
  %17 = icmp eq i32 %16, 2
  br i1 %17, label %18, label %fmt_iocount_record.exit

18:                                               ; preds = %14
  %19 = getelementptr inbounds nuw i8, ptr %1, i64 24
  %20 = load i64, ptr %19, align 8
  %21 = getelementptr inbounds nuw i8, ptr %1, i64 40
  %22 = load i64, ptr %21, align 8
  tail call void (ptr, ptr, ...) @g_string_append_printf(ptr noundef %0, ptr noundef nonnull @.str.18, i64 noundef %20, i64 noundef %22) #7
  br label %fmt_iocount_record.exit

fmt_iocount_record.exit:                          ; preds = %14, %18
  %23 = getelementptr inbounds nuw i8, ptr %0, i64 8
  %24 = load i64, ptr %23, align 8
  %25 = add i64 %24, 1
  %26 = getelementptr inbounds nuw i8, ptr %0, i64 16
  %27 = load i64, ptr %26, align 8
  %28 = icmp ult i64 %25, %27
  br i1 %28, label %29, label %35

29:                                               ; preds = %fmt_iocount_record.exit
  %30 = load ptr, ptr %0, align 8
  store i64 %25, ptr %23, align 8
  %31 = getelementptr inbounds nuw i8, ptr %30, i64 %24
  store i8 10, ptr %31, align 1
  %32 = load ptr, ptr %0, align 8
  %33 = load i64, ptr %23, align 8
  %34 = getelementptr inbounds nuw i8, ptr %32, i64 %33
  store i8 0, ptr %34, align 1
  br label %g_string_append_c_inline.exit

35:                                               ; preds = %fmt_iocount_record.exit
  %36 = tail call ptr @g_string_insert_c(ptr noundef nonnull %0, i64 noundef -1, i8 noundef signext 10) #7
  br label %g_string_append_c_inline.exit

g_string_append_c_inline.exit:                    ; preds = %29, %35
  ret void
}